; Function Attrs: alwaysinline norecurse nounwind uwtable
define internal void @_ZNK4ncnn17StatisticsPooling7forwardERKNS_3MatERS1_RKNS_6OptionE.omp_outlined(ptr noalias noundef readonly captures(none) %0, ptr noalias readnone captures(none) %1, ptr noundef nonnull readonly align 4 captures(none) dereferenceable(4) %2, ptr noundef nonnull readonly align 8 captures(none) dereferenceable(72) %3, ptr noundef nonnull readonly align 4 captures(none) dereferenceable(4) %4, ptr noundef nonnull readonly align 8 captures(none) dereferenceable(72) %5, ptr noundef nonnull readonly align 4 captures(none) dereferenceable(4) %6, ptr noundef nonnull readonly align 4 captures(none) dereferenceable(4) %7) #5 personality ptr @__gxx_personality_v0 {
  %9 = alloca i32, align 4
  %10 = alloca i32, align 4
  %11 = alloca i32, align 4
  %12 = alloca i32, align 4
  %13 = load i32, ptr %2, align 4, !tbaa !29
  %14 = icmp sgt i32 %13, 0
  br i1 %14, label %15, label %49

15:                                               ; preds = %8
  %16 = add nsw i32 %13, -1
  call void @llvm.lifetime.start.p0(i64 4, ptr nonnull %9) #6
  store i32 0, ptr %9, align 4, !tbaa !29
  call void @llvm.lifetime.start.p0(i64 4, ptr nonnull %10) #6
  store i32 %16, ptr %10, align 4, !tbaa !29
  call void @llvm.lifetime.start.p0(i64 4, ptr nonnull %11) #6
  store i32 1, ptr %11, align 4, !tbaa !29
  call void @llvm.lifetime.start.p0(i64 4, ptr nonnull %12) #6
  store i32 0, ptr %12, align 4, !tbaa !29
  %17 = load i32, ptr %0, align 4, !tbaa !29
  call void @__kmpc_for_static_init_4(ptr nonnull @1, i32 %17, i32 34, ptr nonnull %12, ptr nonnull %9, ptr nonnull %10, ptr nonnull %11, i32 1, i32 1)
  %18 = load i32, ptr %10, align 4, !tbaa !29
  %19 = call i32 @llvm.smin.i32(i32 %18, i32 %16)
  store i32 %19, ptr %10, align 4, !tbaa !29
  %20 = load i32, ptr %9, align 4, !tbaa !29
  %.not36 = icmp sgt i32 %20, %19
  br i1 %.not36, label %._crit_edge38, label %.noexc.lr.ph

.noexc.lr.ph:                                     ; preds = %15
  %21 = load ptr, ptr %3, align 8, !tbaa !40, !noalias !41
  %22 = getelementptr inbounds nuw i8, ptr %3, i64 64
  %23 = load i64, ptr %22, align 8, !tbaa !44, !noalias !41
  %24 = getelementptr inbounds nuw i8, ptr %3, i64 16
  %25 = load i64, ptr %24, align 8, !tbaa !32, !noalias !41
  %factor.op.mul = mul i64 %23, %25
  %26 = load i32, ptr %4, align 4, !tbaa !29
  %27 = icmp sgt i32 %26, 0
  %28 = load ptr, ptr %5, align 8, !tbaa !40
  %29 = sext i32 %20 to i64
  br i1 %27, label %.noexc.us.preheader, label %.noexc.preheader

.noexc.preheader:                                 ; preds = %.noexc.lr.ph
  %30 = shl nsw i64 %29, 2
  %scevgep = getelementptr i8, ptr %28, i64 %30
  %31 = sub i32 %19, %20
  %32 = zext i32 %31 to i64
  %33 = shl nuw nsw i64 %32, 2
  %34 = add nuw nsw i64 %33, 4
  call void @llvm.memset.p0.i64(ptr noundef nonnull align 4 dereferenceable(1) %scevgep, i8 0, i64 %34, i1 false), !tbaa !45
  br label %._crit_edge38

.noexc.us.preheader:                              ; preds = %.noexc.lr.ph
  %35 = load i32, ptr %7, align 4, !tbaa !29
  %36 = sitofp i32 %35 to float
  %37 = load i32, ptr %6, align 4, !tbaa !29
  %38 = sitofp i32 %37 to float
  %39 = fmul fast float %36, %38
  %40 = add nsw i32 %19, 1
  %wide.trip.count = zext nneg i32 %26 to i64
  %41 = fdiv fast float 1.000000e+00, %39
  br label %.noexc.us

.noexc.us:                                        ; preds = %.noexc.us.preheader, %._crit_edge.us
  %indvars.iv42 = phi i64 [ %29, %.noexc.us.preheader ], [ %indvars.iv.next43, %._crit_edge.us ]
  %.reass.us = mul i64 %factor.op.mul, %indvars.iv42
  %42 = getelementptr inbounds nuw i8, ptr %21, i64 %.reass.us
  br label %43

43:                                               ; preds = %.noexc.us, %43
  %indvars.iv = phi i64 [ 0, %.noexc.us ], [ %indvars.iv.next, %43 ]
  %.02534.us = phi float [ 0.000000e+00, %.noexc.us ], [ %46, %43 ]
  %44 = getelementptr inbounds nuw float, ptr %42, i64 %indvars.iv
  %45 = load float, ptr %44, align 4, !tbaa !45
  %46 = fadd fast float %45, %.02534.us
  %indvars.iv.next = add nuw nsw i64 %indvars.iv, 1
  %exitcond.not = icmp eq i64 %indvars.iv.next, %wide.trip.count
  br i1 %exitcond.not, label %._crit_edge.us, label %43, !llvm.loop !47

._crit_edge.us:                                   ; preds = %43
  %47 = fmul fast float %46, %41
  %48 = getelementptr inbounds nuw float, ptr %28, i64 %indvars.iv42
  store float %47, ptr %48, align 4, !tbaa !45
  %indvars.iv.next43 = add nsw i64 %indvars.iv42, 1
  %lftr.wideiv = trunc i64 %indvars.iv.next43 to i32
  %exitcond45.not = icmp eq i32 %40, %lftr.wideiv
  br i1 %exitcond45.not, label %._crit_edge38, label %.noexc.us

._crit_edge38:                                    ; preds = %._crit_edge.us, %.noexc.preheader, %15
  call void @__kmpc_for_static_fini(ptr nonnull @1, i32 %17)
  call void @llvm.lifetime.end.p0(i64 4, ptr nonnull %12) #6
  call void @llvm.lifetime.end.p0(i64 4, ptr nonnull %11) #6
  call void @llvm.lifetime.end.p0(i64 4, ptr nonnull %10) #6
  call void @llvm.lifetime.end.p0(i64 4, ptr nonnull %9) #6
  br label %49

49:                                               ; preds = %._crit_edge38, %8
  ret void
}